target datalayout = "e-m:e-p270:32:32-p271:32:32-p272:64:64-i64:64-i128:128-f80:128-n8:16:32:64-S128"
target triple = "x86_64-pc-linux-gnu"

%class.ZMarkThreadLocalStacks = type { ptr, [16 x ptr] }
%class.ZStack = type { i64, ptr, [15 x ptr] }
%class.ZStack.3 = type { i64, ptr, [254 x %class.ZMarkStackEntry] }
%class.ZMarkStackEntry = type { i64 }

; Function Attrs: mustprogress nounwind uwtable
define linkonce_odr hidden void @_ZN15ZMarkStackEntryC2Ev(ptr noundef nonnull align 8 dereferenceable(8) %0) unnamed_addr #1 comdat align 2 {
  %2 = alloca ptr, align 8
  store ptr %0, ptr %2, align 8
  ret void
}

; Function Attrs: mustprogress nounwind uwtable
define linkonce_odr hidden noundef zeroext i1 @_ZNK6ZStackIPS_I15ZMarkStackEntryLm254EELm15EE8is_emptyEv(ptr noundef nonnull align 8 dereferenceable(136) %0) #1 comdat align 2 {
  %2 = alloca ptr, align 8
  store ptr %0, ptr %2, align 8
  %3 = load ptr, ptr %2, align 8
  %4 = getelementptr inbounds %class.ZStack, ptr %3, i32 0, i32 0
  %5 = load i64, ptr %4, align 8
  %6 = icmp eq i64 %5, 0
  ret i1 %6
}

; Function Attrs: mustprogress nounwind uwtable
define linkonce_odr hidden void @_ZN6ZStackI15ZMarkStackEntryLm254EEC2Ev(ptr noundef nonnull align 8 dereferenceable(2048) %0) unnamed_addr #1 comdat align 2 {
  %2 = alloca ptr, align 8
  store ptr %0, ptr %2, align 8
  %3 = load ptr, ptr %2, align 8
  %4 = getelementptr inbounds %class.ZStack.3, ptr %3, i32 0, i32 0
  store i64 0, ptr %4, align 8
  %5 = getelementptr inbounds %class.ZStack.3, ptr %3, i32 0, i32 1
  store ptr null, ptr %5, align 8
  %6 = getelementptr inbounds %class.ZStack.3, ptr %3, i32 0, i32 2
  %7 = getelementptr inbounds [254 x %class.ZMarkStackEntry], ptr %6, i32 0, i32 0
  %8 = getelementptr inbounds %class.ZMarkStackEntry, ptr %7, i64 254
  br label %9

9:                                                ; preds = %9, %1
  %10 = phi ptr [ %7, %1 ], [ %11, %9 ]
  call void @_ZN15ZMarkStackEntryC2Ev(ptr noundef nonnull align 8 dereferenceable(8) %10)
  %11 = getelementptr inbounds %class.ZMarkStackEntry, ptr %10, i64 1
  %12 = icmp eq ptr %11, %8
  br i1 %12, label %13, label %9

13:                                               ; preds = %9
  ret void
}

; Function Attrs: mustprogress nounwind uwtable
define linkonce_odr hidden noundef zeroext i1 @_ZN6ZStackIPS_I15ZMarkStackEntryLm254EELm15EE3popERS2_(ptr noundef nonnull align 8 dereferenceable(136) %0, ptr noundef nonnull align 8 dereferenceable(8) %1) #1 comdat align 2 {
  %3 = alloca i1, align 1
  %4 = alloca ptr, align 8
  %5 = alloca ptr, align 8
  store ptr %0, ptr %4, align 8
  store ptr %1, ptr %5, align 8
  %6 = load ptr, ptr %4, align 8
  %7 = call noundef zeroext i1 @_ZNK6ZStackIPS_I15ZMarkStackEntryLm254EELm15EE8is_emptyEv(ptr noundef nonnull align 8 dereferenceable(136) %6)
  br i1 %7, label %8, label %9

8:                                                ; preds = %2
  store i1 false, ptr %3, align 1
  br label %17

9:                                                ; preds = %2
  %10 = getelementptr inbounds %class.ZStack, ptr %6, i32 0, i32 2
  %11 = getelementptr inbounds %class.ZStack, ptr %6, i32 0, i32 0
  %12 = load i64, ptr %11, align 8
  %13 = add i64 %12, -1
  store i64 %13, ptr %11, align 8
  %14 = getelementptr inbounds [15 x ptr], ptr %10, i64 0, i64 %13
  %15 = load ptr, ptr %14, align 8
  %16 = load ptr, ptr %5, align 8
  store ptr %15, ptr %16, align 8
  store i1 true, ptr %3, align 1
  br label %17

17:                                               ; preds = %9, %8
  %18 = load i1, ptr %3, align 1
  ret i1 %18
}

; Function Attrs: mustprogress nounwind uwtable
define hidden noundef ptr @_ZN22ZMarkThreadLocalStacks14allocate_stackEP19ZMarkStackAllocator(ptr noundef nonnull align 8 dereferenceable(136) %0, ptr noundef %1) #1 align 2 {
  %3 = alloca ptr, align 8
  %4 = alloca ptr, align 8
  %5 = alloca ptr, align 8
  %6 = alloca ptr, align 8
  store ptr %0, ptr %4, align 8
  store ptr %1, ptr %5, align 8
  %7 = load ptr, ptr %4, align 8
  %8 = getelementptr inbounds %class.ZMarkThreadLocalStacks, ptr %7, i32 0, i32 0
  %9 = load ptr, ptr %8, align 8
  %10 = icmp eq ptr %9, null
  br i1 %10, label %11, label %20

11:                                               ; preds = %2
  %12 = load ptr, ptr %5, align 8
  %13 = call noundef ptr @_ZN19ZMarkStackAllocator14alloc_magazineEv(ptr noundef nonnull align 64 dereferenceable(257) %12)
  %14 = getelementptr inbounds %class.ZMarkThreadLocalStacks, ptr %7, i32 0, i32 0
  store ptr %13, ptr %14, align 8
  %15 = getelementptr inbounds %class.ZMarkThreadLocalStacks, ptr %7, i32 0, i32 0
  %16 = load ptr, ptr %15, align 8
  %17 = icmp eq ptr %16, null
  br i1 %17, label %18, label %19

18:                                               ; preds = %11
  store ptr null, ptr %3, align 8
  br label %30

19:                                               ; preds = %11
  br label %20

20:                                               ; preds = %19, %2
  store ptr null, ptr %6, align 8
  %21 = getelementptr inbounds %class.ZMarkThreadLocalStacks, ptr %7, i32 0, i32 0
  %22 = load ptr, ptr %21, align 8
  %23 = call noundef zeroext i1 @_ZN6ZStackIPS_I15ZMarkStackEntryLm254EELm15EE3popERS2_(ptr noundef nonnull align 8 dereferenceable(136) %22, ptr noundef nonnull align 8 dereferenceable(8) %6)
  br i1 %23, label %28, label %24

24:                                               ; preds = %20
  %25 = getelementptr inbounds %class.ZMarkThreadLocalStacks, ptr %7, i32 0, i32 0
  %26 = load ptr, ptr %25, align 8
  call void @_ZN6ZStackI15ZMarkStackEntryLm254EEC2Ev(ptr noundef nonnull align 8 dereferenceable(2048) %26)
  store ptr %26, ptr %6, align 8
  %27 = getelementptr inbounds %class.ZMarkThreadLocalStacks, ptr %7, i32 0, i32 0
  store ptr null, ptr %27, align 8
  br label %28

28:                                               ; preds = %24, %20
  %29 = load ptr, ptr %6, align 8
  store ptr %29, ptr %3, align 8
  br label %30

30:                                               ; preds = %28, %18
  %31 = load ptr, ptr %3, align 8
  ret ptr %31
}