; Function Attrs: mustprogress nounwind uwtable
define hidden noundef ptr @_ZN22ZMarkThreadLocalStacks14allocate_stackEP19ZMarkStackAllocator(ptr nocapture noundef nonnull align 8 dereferenceable(136) %0, ptr noundef %1) local_unnamed_addr #2 align 2 {
  %3 = load ptr, ptr %0, align 8
  %4 = icmp eq ptr %3, null
  br i1 %4, label %5, label %8

5:                                                ; preds = %2
  %6 = tail call noundef ptr @_ZN19ZMarkStackAllocator14alloc_magazineEv(ptr noundef nonnull align 64 dereferenceable(257) %1) #11
  store ptr %6, ptr %0, align 8
  %7 = icmp eq ptr %6, null
  br i1 %7, label %15, label %8

8:                                                ; preds = %5, %2
  %9 = phi ptr [ %6, %5 ], [ %3, %2 ]
  %10 = load i64, ptr %9, align 8
  %.not = icmp eq i64 %10, 0
  br i1 %.not, label %_ZN6ZStackIPS_I15ZMarkStackEntryLm254EELm15EE3popERS2_.exit, label %_ZN6ZStackIPS_I15ZMarkStackEntryLm254EELm15EE3popERS2_.exit.thread

_ZN6ZStackIPS_I15ZMarkStackEntryLm254EELm15EE3popERS2_.exit.thread: ; preds = %8
  %11 = getelementptr inbounds i8, ptr %9, i64 16
  %12 = add i64 %10, -1
  store i64 %12, ptr %9, align 8
  %13 = getelementptr inbounds [15 x ptr], ptr %11, i64 0, i64 %12
  %14 = load ptr, ptr %13, align 8
  br label %15

_ZN6ZStackIPS_I15ZMarkStackEntryLm254EELm15EE3popERS2_.exit: ; preds = %8
  tail call void @llvm.memset.p0.i64(ptr noundef nonnull align 8 dereferenceable(16) %9, i8 0, i64 16, i1 false)
  store ptr null, ptr %0, align 8
  br label %15

15:                                               ; preds = %_ZN6ZStackIPS_I15ZMarkStackEntryLm254EELm15EE3popERS2_.exit, %_ZN6ZStackIPS_I15ZMarkStackEntryLm254EELm15EE3popERS2_.exit.thread, %5
  %.0 = phi ptr [ null, %5 ], [ %9, %_ZN6ZStackIPS_I15ZMarkStackEntryLm254EELm15EE3popERS2_.exit ], [ %14, %_ZN6ZStackIPS_I15ZMarkStackEntryLm254EELm15EE3popERS2_.exit.thread ]
  ret ptr %.0
}